--- !tapi-tbd
tbd-version:     4
targets:         [ arm64-macos ]
flags:           [ not_app_extension_safe ]
install-name:    '@rpath/libnanogui.dylib'
current-version: 0
compatibility-version: 0
exports:
  - targets:         [ arm64-macos ]
    symbols:         [ _GLAD_GL_VERSION_1_0, _GLAD_GL_VERSION_1_1, _GLAD_GL_VERSION_1_2, 
                       _GLAD_GL_VERSION_1_3, _GLAD_GL_VERSION_1_4, _GLAD_GL_VERSION_1_5, 
                       _GLAD_GL_VERSION_2_0, _GLAD_GL_VERSION_2_1, _GLAD_GL_VERSION_3_0, 
                       _GLAD_GL_VERSION_3_1, _GLAD_GL_VERSION_3_2, _GLAD_GL_VERSION_3_3, 
                       _GLAD_GL_VERSION_4_0, _GLAD_GL_VERSION_4_1, _GLAD_GL_VERSION_4_2, 
                       _GLAD_GL_VERSION_4_3, _GLAD_GL_VERSION_4_4, _GLAD_GL_VERSION_4_5, 
                       _GLAD_GL_VERSION_4_6, _GLVersion, __ZN7nanogui10ColorWheel14adjustPositionERKN5Eigen6MatrixIiLi2ELi1ELi0ELi2ELi1EEENS0_6RegionE, 
                       __ZN7nanogui10ColorWheel14mouseDragEventERKN5Eigen6MatrixIiLi2ELi1ELi0ELi2ELi1EEES5_ii, 
                       __ZN7nanogui10ColorWheel16mouseButtonEventERKN5Eigen6MatrixIiLi2ELi1ELi0ELi2ELi1EEEibi, 
                       __ZN7nanogui10ColorWheel4drawEP10NVGcontext, __ZN7nanogui10ColorWheel4loadERNS_10SerializerE, 
                       __ZN7nanogui10ColorWheel8setColorERKNS_5ColorE, __ZN7nanogui10ColorWheelC1EPNS_6WidgetERKNS_5ColorE, 
                       __ZN7nanogui10ColorWheelC2EPNS_6WidgetERKNS_5ColorE, __ZN7nanogui10ImagePanel16mouseButtonEventERKN5Eigen6MatrixIiLi2ELi1ELi0ELi2ELi1EEEibi, 
                       __ZN7nanogui10ImagePanel16mouseMotionEventERKN5Eigen6MatrixIiLi2ELi1ELi0ELi2ELi1EEES5_ii, 
                       __ZN7nanogui10ImagePanel4drawEP10NVGcontext, __ZN7nanogui10ImagePanelC1EPNS_6WidgetE, 
                       __ZN7nanogui10ImagePanelC2EPNS_6WidgetE, __ZN7nanogui10Serializer16isSerializedFileERKNSt3__112basic_stringIcNS1_11char_traitsIcEENS1_9allocatorIcEEEE, 
                       __ZN7nanogui10Serializer3popEv, __ZN7nanogui10Serializer4pushERKNSt3__112basic_stringIcNS1_11char_traitsIcEENS1_9allocatorIcEEEE, 
                       __ZN7nanogui10Serializer4readEPvm, __ZN7nanogui10Serializer4seekEm, 
                       __ZN7nanogui10Serializer4sizeEv, __ZN7nanogui10Serializer5writeEPKvm, 
                       __ZN7nanogui10Serializer7readTOCEv, __ZN7nanogui10Serializer8get_baseERKNSt3__112basic_stringIcNS1_11char_traitsIcEENS1_9allocatorIcEEEES9_, 
                       __ZN7nanogui10Serializer8set_baseERKNSt3__112basic_stringIcNS1_11char_traitsIcEENS1_9allocatorIcEEEES9_, 
                       __ZN7nanogui10Serializer8writeTOCEv, __ZN7nanogui10SerializerC1ERKNSt3__112basic_stringIcNS1_11char_traitsIcEENS1_9allocatorIcEEEEb, 
                       __ZN7nanogui10SerializerC2ERKNSt3__112basic_stringIcNS1_11char_traitsIcEENS1_9allocatorIcEEEEb, 
                       __ZN7nanogui10SerializerD1Ev, __ZN7nanogui10SerializerD2Ev, 
                       __ZN7nanogui11ColorPicker8setColorERKNS_5ColorE, __ZN7nanogui11ColorPickerC1EPNS_6WidgetERKNS_5ColorE, 
                       __ZN7nanogui11ColorPickerC2EPNS_6WidgetERKNS_5ColorE, __ZN7nanogui11PopupButton13performLayoutEP10NVGcontext, 
                       __ZN7nanogui11PopupButton4drawEP10NVGcontext, __ZN7nanogui11PopupButton4loadERNS_10SerializerE, 
                       __ZN7nanogui11PopupButton7setSideENS_5Popup4SideE, __ZN7nanogui11PopupButtonC1EPNS_6WidgetERKNSt3__112basic_stringIcNS3_11char_traitsIcEENS3_9allocatorIcEEEEi, 
                       __ZN7nanogui11PopupButtonC2EPNS_6WidgetERKNSt3__112basic_stringIcNS3_11char_traitsIcEENS3_9allocatorIcEEEEi, 
                       __ZN7nanogui11PopupButtonD0Ev, __ZN7nanogui11PopupButtonD1Ev, 
                       __ZN7nanogui11PopupButtonD2Ev, __ZN7nanogui11ProgressBar4drawEP10NVGcontext, 
                       __ZN7nanogui11ProgressBar4loadERNS_10SerializerE, __ZN7nanogui11ProgressBarC1EPNS_6WidgetE, 
                       __ZN7nanogui11ProgressBarC2EPNS_6WidgetE, __ZN7nanogui11file_dialogERKNSt3__16vectorINS0_4pairINS0_12basic_stringIcNS0_11char_traitsIcEENS0_9allocatorIcEEEES8_EENS6_IS9_EEEEb, 
                       __ZN7nanogui11file_dialogERKNSt3__16vectorINS0_4pairINS0_12basic_stringIcNS0_11char_traitsIcEENS0_9allocatorIcEEEES8_EENS6_IS9_EEEEbb, 
                       __ZN7nanogui12VScrollPanel11scrollEventERKN5Eigen6MatrixIiLi2ELi1ELi0ELi2ELi1EEERKNS2_IfLi2ELi1ELi0ELi2ELi1EEE, 
                       __ZN7nanogui12VScrollPanel13performLayoutEP10NVGcontext, __ZN7nanogui12VScrollPanel14mouseDragEventERKN5Eigen6MatrixIiLi2ELi1ELi0ELi2ELi1EEES5_ii, 
                       __ZN7nanogui12VScrollPanel4drawEP10NVGcontext, __ZN7nanogui12VScrollPanel4loadERNS_10SerializerE, 
                       __ZN7nanogui12VScrollPanelC1EPNS_6WidgetE, __ZN7nanogui12VScrollPanelC2EPNS_6WidgetE, 
                       __ZN7nanogui13GLFramebuffer11downloadTGAERKNSt3__112basic_stringIcNS1_11char_traitsIcEENS1_9allocatorIcEEEE, 
                       __ZN7nanogui13GLFramebuffer4bindEv, __ZN7nanogui13GLFramebuffer4blitEv, 
                       __ZN7nanogui13GLFramebuffer4freeEv, __ZN7nanogui13GLFramebuffer4initERKN5Eigen6MatrixIiLi2ELi1ELi0ELi2ELi1EEEi, 
                       __ZN7nanogui13GLFramebuffer7releaseEv, __ZN7nanogui13MessageDialogC1EPNS_6WidgetENS0_4TypeERKNSt3__112basic_stringIcNS4_11char_traitsIcEENS4_9allocatorIcEEEESC_SC_SC_b, 
                       __ZN7nanogui13MessageDialogC2EPNS_6WidgetENS0_4TypeERKNSt3__112basic_stringIcNS4_11char_traitsIcEENS4_9allocatorIcEEEESC_SC_SC_b, 
                       __ZN7nanogui13StackedWidget13performLayoutEP10NVGcontext, 
                       __ZN7nanogui13StackedWidget16setSelectedIndexEi, __ZN7nanogui13StackedWidget8addChildEiPNS_6WidgetE, 
                       __ZN7nanogui13StackedWidgetC1EPNS_6WidgetE, __ZN7nanogui13StackedWidgetC2EPNS_6WidgetE, 
                       __ZN7nanogui15GLUniformBuffer4bindEi, __ZN7nanogui15GLUniformBuffer4freeEv, 
                       __ZN7nanogui15GLUniformBuffer4initEv, __ZN7nanogui15GLUniformBuffer6updateERKNSt3__16vectorIhNS1_9allocatorIhEEEE, 
                       __ZN7nanogui15GLUniformBuffer7releaseEv, __ZN7nanogui17__nanogui_screensE, 
                       __ZN7nanogui18AdvancedGridLayoutC1ERKNSt3__16vectorIiNS1_9allocatorIiEEEES7_i, 
                       __ZN7nanogui18AdvancedGridLayoutC2ERKNSt3__16vectorIiNS1_9allocatorIiEEEES7_i, 
                       __ZN7nanogui18loadImageDirectoryEP10NVGcontextRKNSt3__112basic_stringIcNS2_11char_traitsIcEENS2_9allocatorIcEEEE, 
                       __ZN7nanogui19__nanogui_get_imageEP10NVGcontextRKNSt3__112basic_stringIcNS2_11char_traitsIcEENS2_9allocatorIcEEEEPhj, 
                       __ZN7nanogui22chdir_to_bundle_parentEv, __ZN7nanogui35disable_saved_application_state_osxEv, 
                       __ZN7nanogui4initEv, __ZN7nanogui4utf8Ei, __ZN7nanogui5Graph4drawEP10NVGcontext, 
                       __ZN7nanogui5Graph4loadERNS_10SerializerE, __ZN7nanogui5GraphC1EPNS_6WidgetERKNSt3__112basic_stringIcNS3_11char_traitsIcEENS3_9allocatorIcEEEE, 
                       __ZN7nanogui5GraphC2EPNS_6WidgetERKNSt3__112basic_stringIcNS3_11char_traitsIcEENS3_9allocatorIcEEEE, 
                       __ZN7nanogui5Label4drawEP10NVGcontext, __ZN7nanogui5Label4loadERNS_10SerializerE, 
                       __ZN7nanogui5Label8setThemeEPNS_5ThemeE, __ZN7nanogui5LabelC1EPNS_6WidgetERKNSt3__112basic_stringIcNS3_11char_traitsIcEENS3_9allocatorIcEEEESB_i, 
                       __ZN7nanogui5LabelC2EPNS_6WidgetERKNSt3__112basic_stringIcNS3_11char_traitsIcEENS3_9allocatorIcEEEESB_i, 
                       __ZN7nanogui5Popup13performLayoutEP10NVGcontext, __ZN7nanogui5Popup24refreshRelativePlacementEv, 
                       __ZN7nanogui5Popup4drawEP10NVGcontext, __ZN7nanogui5Popup4loadERNS_10SerializerE, 
                       __ZN7nanogui5PopupC1EPNS_6WidgetEPNS_6WindowE, __ZN7nanogui5PopupC2EPNS_6WidgetEPNS_6WindowE, 
                       __ZN7nanogui5ThemeC1EP10NVGcontext, __ZN7nanogui5ThemeC2EP10NVGcontext, 
                       __ZN7nanogui5leaveEv, __ZN7nanogui5orthoEffffff, __ZN7nanogui5scaleERKN5Eigen6MatrixIfLi3ELi1ELi0ELi3ELi1EEE, 
                       __ZN7nanogui6Button16mouseButtonEventERKN5Eigen6MatrixIiLi2ELi1ELi0ELi2ELi1EEEibi, 
                       __ZN7nanogui6Button4drawEP10NVGcontext, __ZN7nanogui6Button4loadERNS_10SerializerE, 
                       __ZN7nanogui6ButtonC1EPNS_6WidgetERKNSt3__112basic_stringIcNS3_11char_traitsIcEENS3_9allocatorIcEEEEi, 
                       __ZN7nanogui6ButtonC2EPNS_6WidgetERKNSt3__112basic_stringIcNS3_11char_traitsIcEENS3_9allocatorIcEEEEi, 
                       __ZN7nanogui6ObjectD0Ev, __ZN7nanogui6ObjectD1Ev, __ZN7nanogui6ObjectD2Ev, 
                       __ZN7nanogui6Screen10initializeEP10GLFWwindowb, __ZN7nanogui6Screen10setCaptionERKNSt3__112basic_stringIcNS1_11char_traitsIcEENS1_9allocatorIcEEEE, 
                       __ZN7nanogui6Screen10setVisibleEb, __ZN7nanogui6Screen11drawWidgetsEv, 
                       __ZN7nanogui6Screen11resizeEventERKN5Eigen6MatrixIiLi2ELi1ELi0ELi2ELi1EEE, 
                       __ZN7nanogui6Screen11updateFocusEPNS_6WidgetE, __ZN7nanogui6Screen12centerWindowEPNS_6WindowE, 
                       __ZN7nanogui6Screen13disposeWindowEPNS_6WindowE, __ZN7nanogui6Screen13keyboardEventEiiii, 
                       __ZN7nanogui6Screen16keyCallbackEventEiiii, __ZN7nanogui6Screen17charCallbackEventEj, 
                       __ZN7nanogui6Screen17dropCallbackEventEiPPKc, __ZN7nanogui6Screen17moveWindowToFrontEPNS_6WindowE, 
                       __ZN7nanogui6Screen19resizeCallbackEventEii, __ZN7nanogui6Screen19scrollCallbackEventEdd, 
                       __ZN7nanogui6Screen22cursorPosCallbackEventEdd, __ZN7nanogui6Screen22keyboardCharacterEventEj, 
                       __ZN7nanogui6Screen24mouseButtonCallbackEventEiii, __ZN7nanogui6Screen7drawAllEv, 
                       __ZN7nanogui6Screen7setSizeERKN5Eigen6MatrixIiLi2ELi1ELi0ELi2ELi1EEE, 
                       __ZN7nanogui6ScreenC1ERKN5Eigen6MatrixIiLi2ELi1ELi0ELi2ELi1EEERKNSt3__112basic_stringIcNS6_11char_traitsIcEENS6_9allocatorIcEEEEbbiiiiijj, 
                       __ZN7nanogui6ScreenC1Ev, __ZN7nanogui6ScreenC2ERKN5Eigen6MatrixIiLi2ELi1ELi0ELi2ELi1EEERKNSt3__112basic_stringIcNS6_11char_traitsIcEENS6_9allocatorIcEEEEbbiiiiijj, 
                       __ZN7nanogui6ScreenC2Ev, __ZN7nanogui6ScreenD0Ev, __ZN7nanogui6ScreenD1Ev, 
                       __ZN7nanogui6ScreenD2Ev, __ZN7nanogui6Slider14mouseDragEventERKN5Eigen6MatrixIiLi2ELi1ELi0ELi2ELi1EEES5_ii, 
                       __ZN7nanogui6Slider16mouseButtonEventERKN5Eigen6MatrixIiLi2ELi1ELi0ELi2ELi1EEEibi, 
                       __ZN7nanogui6Slider4drawEP10NVGcontext, __ZN7nanogui6Slider4loadERNS_10SerializerE, 
                       __ZN7nanogui6SliderC1EPNS_6WidgetE, __ZN7nanogui6SliderC2EPNS_6WidgetE, 
                       __ZN7nanogui6Widget10findWidgetERKN5Eigen6MatrixIiLi2ELi1ELi0ELi2ELi1EEE, 
                       __ZN7nanogui6Widget10focusEventEb, __ZN7nanogui6Widget11removeChildEPKS0_, 
                       __ZN7nanogui6Widget11removeChildEi, __ZN7nanogui6Widget11scrollEventERKN5Eigen6MatrixIiLi2ELi1ELi0ELi2ELi1EEERKNS2_IfLi2ELi1ELi0ELi2ELi1EEE, 
                       __ZN7nanogui6Widget12requestFocusEv, __ZN7nanogui6Widget13keyboardEventEiiii, 
                       __ZN7nanogui6Widget13performLayoutEP10NVGcontext, __ZN7nanogui6Widget14mouseDragEventERKN5Eigen6MatrixIiLi2ELi1ELi0ELi2ELi1EEES5_ii, 
                       __ZN7nanogui6Widget15mouseEnterEventERKN5Eigen6MatrixIiLi2ELi1ELi0ELi2ELi1EEEb, 
                       __ZN7nanogui6Widget16mouseButtonEventERKN5Eigen6MatrixIiLi2ELi1ELi0ELi2ELi1EEEibi, 
                       __ZN7nanogui6Widget16mouseMotionEventERKN5Eigen6MatrixIiLi2ELi1ELi0ELi2ELi1EEES5_ii, 
                       __ZN7nanogui6Widget22keyboardCharacterEventEj, __ZN7nanogui6Widget4drawEP10NVGcontext, 
                       __ZN7nanogui6Widget4loadERNS_10SerializerE, __ZN7nanogui6Widget6screenEv, 
                       __ZN7nanogui6Widget6windowEv, __ZN7nanogui6Widget8addChildEPS0_, 
                       __ZN7nanogui6Widget8addChildEiPS0_, __ZN7nanogui6Widget8setThemeEPNS_5ThemeE, 
                       __ZN7nanogui6WidgetC1EPS0_, __ZN7nanogui6WidgetC2EPS0_, __ZN7nanogui6WidgetD0Ev, 
                       __ZN7nanogui6WidgetD1Ev, __ZN7nanogui6WidgetD2Ev, __ZN7nanogui6Window11buttonPanelEv, 
                       __ZN7nanogui6Window11scrollEventERKN5Eigen6MatrixIiLi2ELi1ELi0ELi2ELi1EEERKNS2_IfLi2ELi1ELi0ELi2ELi1EEE, 
                       __ZN7nanogui6Window13performLayoutEP10NVGcontext, __ZN7nanogui6Window14mouseDragEventERKN5Eigen6MatrixIiLi2ELi1ELi0ELi2ELi1EEES5_ii, 
                       __ZN7nanogui6Window16mouseButtonEventERKN5Eigen6MatrixIiLi2ELi1ELi0ELi2ELi1EEEibi, 
                       __ZN7nanogui6Window24refreshRelativePlacementEv, __ZN7nanogui6Window4drawEP10NVGcontext, 
                       __ZN7nanogui6Window4loadERNS_10SerializerE, __ZN7nanogui6Window6centerEv, 
                       __ZN7nanogui6Window7disposeEv, __ZN7nanogui6WindowC1EPNS_6WidgetERKNSt3__112basic_stringIcNS3_11char_traitsIcEENS3_9allocatorIcEEEE, 
                       __ZN7nanogui6WindowC2EPNS_6WidgetERKNSt3__112basic_stringIcNS3_11char_traitsIcEENS3_9allocatorIcEEEE, 
                       __ZN7nanogui6activeEv, __ZN7nanogui6lookAtERKN5Eigen6MatrixIfLi3ELi1ELi0ELi3ELi1EEES4_S4_, 
                       __ZN7nanogui7TextBox10focusEventEb, __ZN7nanogui7TextBox11checkFormatERKNSt3__112basic_stringIcNS1_11char_traitsIcEENS1_9allocatorIcEEEES9_, 
                       __ZN7nanogui7TextBox11setEditableEb, __ZN7nanogui7TextBox12updateCursorEP10NVGcontextfPK16NVGglyphPositioni, 
                       __ZN7nanogui7TextBox13copySelectionEv, __ZN7nanogui7TextBox13keyboardEventEiiii, 
                       __ZN7nanogui7TextBox14mouseDragEventERKN5Eigen6MatrixIiLi2ELi1ELi0ELi2ELi1EEES5_ii, 
                       __ZN7nanogui7TextBox15deleteSelectionEv, __ZN7nanogui7TextBox16mouseButtonEventERKN5Eigen6MatrixIiLi2ELi1ELi0ELi2ELi1EEEibi, 
                       __ZN7nanogui7TextBox16mouseMotionEventERKN5Eigen6MatrixIiLi2ELi1ELi0ELi2ELi1EEES5_ii, 
                       __ZN7nanogui7TextBox18pasteFromClipboardEv, __ZN7nanogui7TextBox20cursorIndex2PositionEifPK16NVGglyphPositioni, 
                       __ZN7nanogui7TextBox20position2CursorIndexEffPK16NVGglyphPositioni, 
                       __ZN7nanogui7TextBox22keyboardCharacterEventEj, __ZN7nanogui7TextBox4drawEP10NVGcontext, 
                       __ZN7nanogui7TextBox4loadERNS_10SerializerE, __ZN7nanogui7TextBox8setThemeEPNS_5ThemeE, 
                       __ZN7nanogui7TextBox8spinAreaERKN5Eigen6MatrixIiLi2ELi1ELi0ELi2ELi1EEE, 
                       __ZN7nanogui7TextBoxC1EPNS_6WidgetERKNSt3__112basic_stringIcNS3_11char_traitsIcEENS3_9allocatorIcEEEE, 
                       __ZN7nanogui7TextBoxC2EPNS_6WidgetERKNSt3__112basic_stringIcNS3_11char_traitsIcEENS3_9allocatorIcEEEE, 
                       __ZN7nanogui7frustumEffffff, __ZN7nanogui7projectERKN5Eigen6MatrixIfLi3ELi1ELi0ELi3ELi1EEERKNS1_IfLi4ELi4ELi0ELi4ELi4EEES7_RKNS1_IiLi2ELi1ELi0ELi2ELi1EEE, 
                       __ZN7nanogui8CheckBox16mouseButtonEventERKN5Eigen6MatrixIiLi2ELi1ELi0ELi2ELi1EEEibi, 
                       __ZN7nanogui8CheckBox4drawEP10NVGcontext, __ZN7nanogui8CheckBox4loadERNS_10SerializerE, 
                       __ZN7nanogui8CheckBoxC1EPNS_6WidgetERKNSt3__112basic_stringIcNS3_11char_traitsIcEENS3_9allocatorIcEEEERKNS3_8functionIFvbEEE, 
                       __ZN7nanogui8CheckBoxC2EPNS_6WidgetERKNSt3__112basic_stringIcNS3_11char_traitsIcEENS3_9allocatorIcEEEERKNS3_8functionIFvbEEE, 
                       __ZN7nanogui8ComboBox11scrollEventERKN5Eigen6MatrixIiLi2ELi1ELi0ELi2ELi1EEERKNS2_IfLi2ELi1ELi0ELi2ELi1EEE, 
                       __ZN7nanogui8ComboBox16setSelectedIndexEi, __ZN7nanogui8ComboBox4loadERNS_10SerializerE, 
                       __ZN7nanogui8ComboBox8setItemsERKNSt3__16vectorINS1_12basic_stringIcNS1_11char_traitsIcEENS1_9allocatorIcEEEENS6_IS8_EEEESC_, 
                       __ZN7nanogui8ComboBoxC1EPNS_6WidgetE, __ZN7nanogui8ComboBoxC1EPNS_6WidgetERKNSt3__16vectorINS3_12basic_stringIcNS3_11char_traitsIcEENS3_9allocatorIcEEEENS8_ISA_EEEE, 
                       __ZN7nanogui8ComboBoxC1EPNS_6WidgetERKNSt3__16vectorINS3_12basic_stringIcNS3_11char_traitsIcEENS3_9allocatorIcEEEENS8_ISA_EEEESE_, 
                       __ZN7nanogui8ComboBoxC2EPNS_6WidgetE, __ZN7nanogui8ComboBoxC2EPNS_6WidgetERKNSt3__16vectorINS3_12basic_stringIcNS3_11char_traitsIcEENS3_9allocatorIcEEEENS8_ISA_EEEE, 
                       __ZN7nanogui8ComboBoxC2EPNS_6WidgetERKNSt3__16vectorINS3_12basic_stringIcNS3_11char_traitsIcEENS3_9allocatorIcEEEENS8_ISA_EEEESE_, 
                       __ZN7nanogui8GLCanvas4drawEP10NVGcontext, __ZN7nanogui8GLCanvas4loadERNS_10SerializerE, 
                       __ZN7nanogui8GLCanvasC1EPNS_6WidgetE, __ZN7nanogui8GLCanvasC2EPNS_6WidgetE, 
                       __ZN7nanogui8GLShader10freeAttribERKNSt3__112basic_stringIcNS1_11char_traitsIcEENS1_9allocatorIcEEEE, 
                       __ZN7nanogui8GLShader10setUniformERKNSt3__112basic_stringIcNS1_11char_traitsIcEENS1_9allocatorIcEEEERKNS_15GLUniformBufferEb, 
                       __ZN7nanogui8GLShader11drawIndexedEijj, __ZN7nanogui8GLShader11shareAttribERKS0_RKNSt3__112basic_stringIcNS3_11char_traitsIcEENS3_9allocatorIcEEEESB_, 
                       __ZN7nanogui8GLShader12attribBufferERKNSt3__112basic_stringIcNS1_11char_traitsIcEENS1_9allocatorIcEEEE, 
                       __ZN7nanogui8GLShader12uploadAttribERKNSt3__112basic_stringIcNS1_11char_traitsIcEENS1_9allocatorIcEEEEmijjbPKvi, 
                       __ZN7nanogui8GLShader13initFromFilesERKNSt3__112basic_stringIcNS1_11char_traitsIcEENS1_9allocatorIcEEEES9_S9_S9_, 
                       __ZN7nanogui8GLShader14downloadAttribERKNSt3__112basic_stringIcNS1_11char_traitsIcEENS1_9allocatorIcEEEEmijjPv, 
                       __ZN7nanogui8GLShader17invalidateAttribsEv, __ZN7nanogui8GLShader4bindEv, 
                       __ZN7nanogui8GLShader4freeEv, __ZN7nanogui8GLShader4initERKNSt3__112basic_stringIcNS1_11char_traitsIcEENS1_9allocatorIcEEEES9_S9_S9_, 
                       __ZN7nanogui8GLShader9drawArrayEijj, __ZN7nanogui8mainloopEi, 
                       __ZN7nanogui8shutdownEv, __ZN7nanogui9BoxLayoutC1ENS_11OrientationENS_9AlignmentEii, 
                       __ZN7nanogui9BoxLayoutC2ENS_11OrientationENS_9AlignmentEii, 
                       __ZN7nanogui9ImageView10moveOffsetERKN5Eigen6MatrixIfLi2ELi1ELi0ELi2ELi1EEE, 
                       __ZN7nanogui9ImageView11scrollEventERKN5Eigen6MatrixIiLi2ELi1ELi0ELi2ELi1EEERKNS2_IfLi2ELi1ELi0ELi2ELi1EEE, 
                       __ZN7nanogui9ImageView13drawPixelGridEP10NVGcontextRKN5Eigen6MatrixIfLi2ELi1ELi0ELi2ELi1EEES7_f, 
                       __ZN7nanogui9ImageView13keyboardEventEiiii, __ZN7nanogui9ImageView13performLayoutEP10NVGcontext, 
                       __ZN7nanogui9ImageView14mouseDragEventERKN5Eigen6MatrixIiLi2ELi1ELi0ELi2ELi1EEES5_ii, 
                       __ZN7nanogui9ImageView16setScaleCenteredEf, __ZN7nanogui9ImageView20setImageCoordinateAtERKN5Eigen6MatrixIfLi2ELi1ELi0ELi2ELi1EEES5_, 
                       __ZN7nanogui9ImageView21updateImageParametersEv, __ZN7nanogui9ImageView22keyboardCharacterEventEj, 
                       __ZN7nanogui9ImageView3fitEv, __ZN7nanogui9ImageView4drawEP10NVGcontext, 
                       __ZN7nanogui9ImageView4zoomEiRKN5Eigen6MatrixIfLi2ELi1ELi0ELi2ELi1EEE, 
                       __ZN7nanogui9ImageView6centerEv, __ZN7nanogui9ImageView9bindImageEj, 
                       __ZN7nanogui9ImageViewC1EPNS_6WidgetEj, __ZN7nanogui9ImageViewC2EPNS_6WidgetEj, 
                       __ZN7nanogui9ImageViewD0Ev, __ZN7nanogui9ImageViewD1Ev, __ZN7nanogui9ImageViewD2Ev, 
                       __ZN7nanogui9TabHeader11locateClickERKN5Eigen6MatrixIiLi2ELi1ELi0ELi2ELi1EEE, 
                       __ZN7nanogui9TabHeader11onArrowLeftEv, __ZN7nanogui9TabHeader12drawControlsEP10NVGcontext, 
                       __ZN7nanogui9TabHeader12onArrowRightEv, __ZN7nanogui9TabHeader12setActiveTabEi, 
                       __ZN7nanogui9TabHeader13performLayoutEP10NVGcontext, __ZN7nanogui9TabHeader16ensureTabVisibleEi, 
                       __ZN7nanogui9TabHeader16mouseButtonEventERKN5Eigen6MatrixIiLi2ELi1ELi0ELi2ELi1EEEibi, 
                       __ZN7nanogui9TabHeader19calculateVisibleEndEv, __ZN7nanogui9TabHeader4drawEP10NVGcontext, 
                       __ZN7nanogui9TabHeader6addTabERKNSt3__112basic_stringIcNS1_11char_traitsIcEENS1_9allocatorIcEEEE, 
                       __ZN7nanogui9TabHeader6addTabEiRKNSt3__112basic_stringIcNS1_11char_traitsIcEENS1_9allocatorIcEEEE, 
                       __ZN7nanogui9TabHeader8tabIndexERKNSt3__112basic_stringIcNS1_11char_traitsIcEENS1_9allocatorIcEEEE, 
                       __ZN7nanogui9TabHeader9TabButton14drawAtPositionEP10NVGcontextRKN5Eigen6MatrixIiLi2ELi1ELi0ELi2ELi1EEEb, 
                       __ZN7nanogui9TabHeader9TabButton18drawActiveBorderAtEP10NVGcontextRKN5Eigen6MatrixIiLi2ELi1ELi0ELi2ELi1EEEfRKNS_5ColorE, 
                       __ZN7nanogui9TabHeader9TabButton20drawInactiveBorderAtEP10NVGcontextRKN5Eigen6MatrixIiLi2ELi1ELi0ELi2ELi1EEEfRKNS_5ColorE, 
                       __ZN7nanogui9TabHeader9TabButton22calculateVisibleStringEP10NVGcontext, 
                       __ZN7nanogui9TabHeader9TabButtonC1ERS0_RKNSt3__112basic_stringIcNS3_11char_traitsIcEENS3_9allocatorIcEEEE, 
                       __ZN7nanogui9TabHeader9TabButtonC2ERS0_RKNSt3__112basic_stringIcNS3_11char_traitsIcEENS3_9allocatorIcEEEE, 
                       __ZN7nanogui9TabHeader9removeTabERKNSt3__112basic_stringIcNS1_11char_traitsIcEENS1_9allocatorIcEEEE, 
                       __ZN7nanogui9TabHeader9removeTabEi, __ZN7nanogui9TabHeaderC1EPNS_6WidgetERKNSt3__112basic_stringIcNS3_11char_traitsIcEENS3_9allocatorIcEEEE, 
                       __ZN7nanogui9TabHeaderC2EPNS_6WidgetERKNSt3__112basic_stringIcNS3_11char_traitsIcEENS3_9allocatorIcEEEE, 
                       __ZN7nanogui9TabWidget12setActiveTabEi, __ZN7nanogui9TabWidget13performLayoutEP10NVGcontext, 
                       __ZN7nanogui9TabWidget13tabLabelIndexERKNSt3__112basic_stringIcNS1_11char_traitsIcEENS1_9allocatorIcEEEE, 
                       __ZN7nanogui9TabWidget16ensureTabVisibleEi, __ZN7nanogui9TabWidget3tabERKNSt3__112basic_stringIcNS1_11char_traitsIcEENS1_9allocatorIcEEEE, 
                       __ZN7nanogui9TabWidget3tabEi, __ZN7nanogui9TabWidget4drawEP10NVGcontext, 
                       __ZN7nanogui9TabWidget6addTabERKNSt3__112basic_stringIcNS1_11char_traitsIcEENS1_9allocatorIcEEEEPNS_6WidgetE, 
                       __ZN7nanogui9TabWidget6addTabEiRKNSt3__112basic_stringIcNS1_11char_traitsIcEENS1_9allocatorIcEEEEPNS_6WidgetE, 
                       __ZN7nanogui9TabWidget8addChildEiPNS_6WidgetE, __ZN7nanogui9TabWidget8tabIndexEPNS_6WidgetE, 
                       __ZN7nanogui9TabWidget9createTabERKNSt3__112basic_stringIcNS1_11char_traitsIcEENS1_9allocatorIcEEEE, 
                       __ZN7nanogui9TabWidget9createTabEiRKNSt3__112basic_stringIcNS1_11char_traitsIcEENS1_9allocatorIcEEEE, 
                       __ZN7nanogui9TabWidget9removeTabERKNSt3__112basic_stringIcNS1_11char_traitsIcEENS1_9allocatorIcEEEE, 
                       __ZN7nanogui9TabWidget9removeTabEi, __ZN7nanogui9TabWidgetC1EPNS_6WidgetE, 
                       __ZN7nanogui9TabWidgetC2EPNS_6WidgetE, __ZN7nanogui9translateERKN5Eigen6MatrixIfLi3ELi1ELi0ELi3ELi1EEE, 
                       __ZN7nanogui9unprojectERKN5Eigen6MatrixIfLi3ELi1ELi0ELi3ELi1EEERKNS1_IfLi4ELi4ELi0ELi4ELi4EEES7_RKNS1_IiLi2ELi1ELi0ELi2ELi1EEE, 
                       __ZNK7nanogui10ColorWheel13preferredSizeEP10NVGcontext, __ZNK7nanogui10ColorWheel4saveERNS_10SerializerE, 
                       __ZNK7nanogui10ColorWheel5colorEv, __ZNK7nanogui10ColorWheel7hue2rgbEf, 
                       __ZNK7nanogui10GridLayout13computeLayoutEP10NVGcontextPKNS_6WidgetEPNSt3__16vectorIiNS6_9allocatorIiEEEE, 
                       __ZNK7nanogui10GridLayout13performLayoutEP10NVGcontextPNS_6WidgetE, 
                       __ZNK7nanogui10GridLayout13preferredSizeEP10NVGcontextPKNS_6WidgetE, 
                       __ZNK7nanogui10ImagePanel13preferredSizeEP10NVGcontext, __ZNK7nanogui10ImagePanel16indexForPositionERKN5Eigen6MatrixIiLi2ELi1ELi0ELi2ELi1EEE, 
                       __ZNK7nanogui10ImagePanel8gridSizeEv, __ZNK7nanogui10Serializer4keysEv, 
                       __ZNK7nanogui11ColorPicker5colorEv, __ZNK7nanogui11GroupLayout13performLayoutEP10NVGcontextPNS_6WidgetE, 
                       __ZNK7nanogui11GroupLayout13preferredSizeEP10NVGcontextPKNS_6WidgetE, 
                       __ZNK7nanogui11PopupButton13preferredSizeEP10NVGcontext, __ZNK7nanogui11PopupButton4saveERNS_10SerializerE, 
                       __ZNK7nanogui11ProgressBar13preferredSizeEP10NVGcontext, __ZNK7nanogui11ProgressBar4saveERNS_10SerializerE, 
                       __ZNK7nanogui12VScrollPanel13preferredSizeEP10NVGcontext, 
                       __ZNK7nanogui12VScrollPanel4saveERNS_10SerializerE, __ZNK7nanogui13StackedWidget13preferredSizeEP10NVGcontext, 
                       __ZNK7nanogui13StackedWidget13selectedIndexEv, __ZNK7nanogui18AdvancedGridLayout13computeLayoutEP10NVGcontextPKNS_6WidgetEPNSt3__16vectorIiNS6_9allocatorIiEEEE, 
                       __ZNK7nanogui18AdvancedGridLayout13performLayoutEP10NVGcontextPNS_6WidgetE, 
                       __ZNK7nanogui18AdvancedGridLayout13preferredSizeEP10NVGcontextPKNS_6WidgetE, 
                       __ZNK7nanogui5Graph13preferredSizeEP10NVGcontext, __ZNK7nanogui5Graph4saveERNS_10SerializerE, 
                       __ZNK7nanogui5Label13preferredSizeEP10NVGcontext, __ZNK7nanogui5Label4saveERNS_10SerializerE, 
                       __ZNK7nanogui5Popup4saveERNS_10SerializerE, __ZNK7nanogui6Button13preferredSizeEP10NVGcontext, 
                       __ZNK7nanogui6Button4saveERNS_10SerializerE, __ZNK7nanogui6Object6decRefEb, 
                       __ZNK7nanogui6Slider13preferredSizeEP10NVGcontext, __ZNK7nanogui6Slider4saveERNS_10SerializerE, 
                       __ZNK7nanogui6Widget10childIndexEPS0_, __ZNK7nanogui6Widget13preferredSizeEP10NVGcontext, 
                       __ZNK7nanogui6Widget4saveERNS_10SerializerE, __ZNK7nanogui6Widget8fontSizeEv, 
                       __ZNK7nanogui6Window13preferredSizeEP10NVGcontext, __ZNK7nanogui6Window4saveERNS_10SerializerE, 
                       __ZNK7nanogui7TextBox13preferredSizeEP10NVGcontext, __ZNK7nanogui7TextBox4saveERNS_10SerializerE, 
                       __ZNK7nanogui8CheckBox13preferredSizeEP10NVGcontext, __ZNK7nanogui8CheckBox4saveERNS_10SerializerE, 
                       __ZNK7nanogui8ComboBox4saveERNS_10SerializerE, __ZNK7nanogui8GLCanvas16drawWidgetBorderEP10NVGcontext, 
                       __ZNK7nanogui8GLCanvas4saveERNS_10SerializerE, __ZNK7nanogui8GLShader6attribERKNSt3__112basic_stringIcNS1_11char_traitsIcEENS1_9allocatorIcEEEEb, 
                       __ZNK7nanogui8GLShader7uniformERKNSt3__112basic_stringIcNS1_11char_traitsIcEENS1_9allocatorIcEEEEb, 
                       __ZNK7nanogui9BoxLayout13performLayoutEP10NVGcontextPNS_6WidgetE, 
                       __ZNK7nanogui9BoxLayout13preferredSizeEP10NVGcontextPKNS_6WidgetE, 
                       __ZNK7nanogui9ImageView11drawHelpersEP10NVGcontext, __ZNK7nanogui9ImageView11gridVisibleEv, 
                       __ZNK7nanogui9ImageView13drawPixelInfoEP10NVGcontextf, __ZNK7nanogui9ImageView13preferredSizeEP10NVGcontext, 
                       __ZNK7nanogui9ImageView14helpersVisibleEv, __ZNK7nanogui9ImageView14writePixelInfoEP10NVGcontextRKN5Eigen6MatrixIfLi2ELi1ELi0ELi2ELi1EEERKNS4_IiLi2ELi1ELi0ELi2ELi1EEEff, 
                       __ZNK7nanogui9ImageView15drawImageBorderEP10NVGcontext, __ZNK7nanogui9ImageView16drawWidgetBorderEP10NVGcontext, 
                       __ZNK7nanogui9ImageView16pixelInfoVisibleEv, __ZNK7nanogui9ImageView17imageCoordinateAtERKN5Eigen6MatrixIfLi2ELi1ELi0ELi2ELi1EEE, 
                       __ZNK7nanogui9ImageView21positionForCoordinateERKN5Eigen6MatrixIfLi2ELi1ELi0ELi2ELi1EEE, 
                       __ZNK7nanogui9ImageView24clampedImageCoordinateAtERKN5Eigen6MatrixIfLi2ELi1ELi0ELi2ELi1EEE, 
                       __ZNK7nanogui9TabHeader10tabLabelAtEi, __ZNK7nanogui9TabHeader12isTabVisibleEi, 
                       __ZNK7nanogui9TabHeader13preferredSizeEP10NVGcontext, __ZNK7nanogui9TabHeader16activeButtonAreaEv, 
                       __ZNK7nanogui9TabHeader17visibleButtonAreaEv, __ZNK7nanogui9TabHeader9TabButton13preferredSizeEP10NVGcontext, 
                       __ZNK7nanogui9TabHeader9activeTabEv, __ZNK7nanogui9TabWidget10tabLabelAtEi, 
                       __ZNK7nanogui9TabWidget13preferredSizeEP10NVGcontext, __ZNK7nanogui9TabWidget3tabERKNSt3__112basic_stringIcNS1_11char_traitsIcEENS1_9allocatorIcEEEE, 
                       __ZNK7nanogui9TabWidget3tabEi, __ZNK7nanogui9TabWidget8tabCountEv, 
                       __ZNK7nanogui9TabWidget9activeTabEv, __ZTIN7nanogui10ColorWheelE, 
                       __ZTIN7nanogui10GridLayoutE, __ZTIN7nanogui10ImagePanelE, 
                       __ZTIN7nanogui11GroupLayoutE, __ZTIN7nanogui11PopupButtonE, 
                       __ZTIN7nanogui11ProgressBarE, __ZTIN7nanogui12VScrollPanelE, 
                       __ZTIN7nanogui13StackedWidgetE, __ZTIN7nanogui18AdvancedGridLayoutE, 
                       __ZTIN7nanogui5GraphE, __ZTIN7nanogui5LabelE, __ZTIN7nanogui5PopupE, 
                       __ZTIN7nanogui6ButtonE, __ZTIN7nanogui6ObjectE, __ZTIN7nanogui6ScreenE, 
                       __ZTIN7nanogui6SliderE, __ZTIN7nanogui6WidgetE, __ZTIN7nanogui6WindowE, 
                       __ZTIN7nanogui7TextBoxE, __ZTIN7nanogui8CheckBoxE, __ZTIN7nanogui8ComboBoxE, 
                       __ZTIN7nanogui8GLCanvasE, __ZTIN7nanogui9BoxLayoutE, __ZTIN7nanogui9ImageViewE, 
                       __ZTIN7nanogui9TabHeaderE, __ZTIN7nanogui9TabWidgetE, __ZTSN7nanogui10ColorWheelE, 
                       __ZTSN7nanogui10GridLayoutE, __ZTSN7nanogui10ImagePanelE, 
                       __ZTSN7nanogui11GroupLayoutE, __ZTSN7nanogui11PopupButtonE, 
                       __ZTSN7nanogui11ProgressBarE, __ZTSN7nanogui12VScrollPanelE, 
                       __ZTSN7nanogui13StackedWidgetE, __ZTSN7nanogui18AdvancedGridLayoutE, 
                       __ZTSN7nanogui5GraphE, __ZTSN7nanogui5LabelE, __ZTSN7nanogui5PopupE, 
                       __ZTSN7nanogui6ButtonE, __ZTSN7nanogui6ObjectE, __ZTSN7nanogui6ScreenE, 
                       __ZTSN7nanogui6SliderE, __ZTSN7nanogui6WidgetE, __ZTSN7nanogui6WindowE, 
                       __ZTSN7nanogui7TextBoxE, __ZTSN7nanogui8CheckBoxE, __ZTSN7nanogui8ComboBoxE, 
                       __ZTSN7nanogui8GLCanvasE, __ZTSN7nanogui9BoxLayoutE, __ZTSN7nanogui9ImageViewE, 
                       __ZTSN7nanogui9TabHeaderE, __ZTSN7nanogui9TabWidgetE, __ZTVN7nanogui10ColorWheelE, 
                       __ZTVN7nanogui10GridLayoutE, __ZTVN7nanogui10ImagePanelE, 
                       __ZTVN7nanogui11GroupLayoutE, __ZTVN7nanogui11PopupButtonE, 
                       __ZTVN7nanogui11ProgressBarE, __ZTVN7nanogui12VScrollPanelE, 
                       __ZTVN7nanogui13StackedWidgetE, __ZTVN7nanogui18AdvancedGridLayoutE, 
                       __ZTVN7nanogui5GraphE, __ZTVN7nanogui5LabelE, __ZTVN7nanogui5PopupE, 
                       __ZTVN7nanogui6ButtonE, __ZTVN7nanogui6ObjectE, __ZTVN7nanogui6ScreenE, 
                       __ZTVN7nanogui6SliderE, __ZTVN7nanogui6WidgetE, __ZTVN7nanogui6WindowE, 
                       __ZTVN7nanogui7TextBoxE, __ZTVN7nanogui8CheckBoxE, __ZTVN7nanogui8ComboBoxE, 
                       __ZTVN7nanogui8GLCanvasE, __ZTVN7nanogui9BoxLayoutE, __ZTVN7nanogui9ImageViewE, 
                       __ZTVN7nanogui9TabHeaderE, __ZTVN7nanogui9TabWidgetE, __glfw, 
                       __glfwAllocGammaArrays, __glfwAllocMonitor, __glfwChooseFBConfig, 
                       __glfwChooseVideoMode, __glfwCompareVideoModes, __glfwCreateContextNSGL, 
                       __glfwFreeGammaArrays, __glfwFreeMonitor, __glfwFreeMonitors, 
                       __glfwGetVulkanResultString, __glfwInitJoysticksNS, __glfwInitNSGL, 
                       __glfwInitThreadLocalStoragePOSIX, __glfwInitTimerNS, __glfwInitVulkan, 
                       __glfwInitialized, __glfwInputChar, __glfwInputCursorEnter, 
                       __glfwInputCursorPos, __glfwInputDrop, __glfwInputError, __glfwInputFramebufferSize, 
                       __glfwInputJoystickChange, __glfwInputKey, __glfwInputMonitorChange, 
                       __glfwInputMonitorWindowChange, __glfwInputMouseClick, __glfwInputScroll, 
                       __glfwInputWindowCloseRequest, __glfwInputWindowDamage, __glfwInputWindowFocus, 
                       __glfwInputWindowIconify, __glfwInputWindowMonitorChange, 
                       __glfwInputWindowPos, __glfwInputWindowSize, __glfwIsPrintable, 
                       __glfwIsValidContextConfig, __glfwPlatformCreateCursor, __glfwPlatformCreateStandardCursor, 
                       __glfwPlatformCreateWindow, __glfwPlatformCreateWindowSurface, 
                       __glfwPlatformDestroyCursor, __glfwPlatformDestroyWindow, 
                       __glfwPlatformFocusWindow, __glfwPlatformGetClipboardString, 
                       __glfwPlatformGetCurrentContext, __glfwPlatformGetCursorPos, 
                       __glfwPlatformGetFramebufferSize, __glfwPlatformGetGammaRamp, 
                       __glfwPlatformGetJoystickAxes, __glfwPlatformGetJoystickButtons, 
                       __glfwPlatformGetJoystickName, __glfwPlatformGetKeyName, __glfwPlatformGetMonitorPos, 
                       __glfwPlatformGetMonitors, __glfwPlatformGetPhysicalDevicePresentationSupport, 
                       __glfwPlatformGetRequiredInstanceExtensions, __glfwPlatformGetTimerFrequency, 
                       __glfwPlatformGetTimerValue, __glfwPlatformGetVersionString, 
                       __glfwPlatformGetVideoMode, __glfwPlatformGetVideoModes, __glfwPlatformGetWindowFrameSize, 
                       __glfwPlatformGetWindowPos, __glfwPlatformGetWindowSize, __glfwPlatformHideWindow, 
                       __glfwPlatformIconifyWindow, __glfwPlatformInit, __glfwPlatformIsSameMonitor, 
                       __glfwPlatformJoystickPresent, __glfwPlatformMaximizeWindow, 
                       __glfwPlatformPollEvents, __glfwPlatformPostEmptyEvent, __glfwPlatformRestoreWindow, 
                       __glfwPlatformSetClipboardString, __glfwPlatformSetCurrentContext, 
                       __glfwPlatformSetCursor, __glfwPlatformSetCursorMode, __glfwPlatformSetCursorPos, 
                       __glfwPlatformSetGammaRamp, __glfwPlatformSetWindowAspectRatio, 
                       __glfwPlatformSetWindowIcon, __glfwPlatformSetWindowMonitor, 
                       __glfwPlatformSetWindowPos, __glfwPlatformSetWindowSize, __glfwPlatformSetWindowSizeLimits, 
                       __glfwPlatformSetWindowTitle, __glfwPlatformShowWindow, __glfwPlatformTerminate, 
                       __glfwPlatformWaitEvents, __glfwPlatformWaitEventsTimeout, 
                       __glfwPlatformWindowFocused, __glfwPlatformWindowIconified, 
                       __glfwPlatformWindowMaximized, __glfwPlatformWindowVisible, 
                       __glfwRefreshContextAttribs, __glfwRestoreVideoModeNS, __glfwSetVideoModeNS, 
                       __glfwSplitBPP, __glfwStringInExtensionString, __glfwTerminateJoysticksNS, 
                       __glfwTerminateNSGL, __glfwTerminateThreadLocalStoragePOSIX, 
                       __glfwTerminateVulkan, _entypo_ttf, _entypo_ttf_size, _fonsAddFallbackFont, 
                       _fonsAddFont, _fonsAddFontMem, _fonsClearState, _fonsCreateInternal, 
                       _fonsDeleteInternal, _fonsDrawDebug, _fonsDrawText, _fonsExpandAtlas, 
                       _fonsGetAtlasSize, _fonsGetFontByName, _fonsGetTextureData, 
                       _fonsLineBounds, _fonsPopState, _fonsPushState, _fonsResetAtlas, 
                       _fonsSetAlign, _fonsSetBlur, _fonsSetColor, _fonsSetErrorCallback, 
                       _fonsSetFont, _fonsSetSize, _fonsSetSpacing, _fonsTextBounds, 
                       _fonsTextIterInit, _fonsTextIterNext, _fonsValidateTexture, 
                       _fonsVertMetrics, _fons__tt_buildGlyphBitmap, _fons__tt_done, 
                       _fons__tt_getFontVMetrics, _fons__tt_getGlyphIndex, _fons__tt_getGlyphKernAdvance, 
                       _fons__tt_getPixelHeightScale, _fons__tt_init, _fons__tt_loadFont, 
                       _fons__tt_renderGlyphBitmap, _gladLoadGLLoader, _glad_glActiveShaderProgram, 
                       _glad_glActiveTexture, _glad_glAttachShader, _glad_glBeginConditionalRender, 
                       _glad_glBeginQuery, _glad_glBeginQueryIndexed, _glad_glBeginTransformFeedback, 
                       _glad_glBindAttribLocation, _glad_glBindBuffer, _glad_glBindBufferBase, 
                       _glad_glBindBufferRange, _glad_glBindBuffersBase, _glad_glBindBuffersRange, 
                       _glad_glBindFragDataLocation, _glad_glBindFragDataLocationIndexed, 
                       _glad_glBindFramebuffer, _glad_glBindImageTexture, _glad_glBindImageTextures, 
                       _glad_glBindProgramPipeline, _glad_glBindRenderbuffer, _glad_glBindSampler, 
                       _glad_glBindSamplers, _glad_glBindTexture, _glad_glBindTextureUnit, 
                       _glad_glBindTextures, _glad_glBindTransformFeedback, _glad_glBindVertexArray, 
                       _glad_glBindVertexBuffer, _glad_glBindVertexBuffers, _glad_glBlendColor, 
                       _glad_glBlendEquation, _glad_glBlendEquationSeparate, _glad_glBlendEquationSeparatei, 
                       _glad_glBlendEquationi, _glad_glBlendFunc, _glad_glBlendFuncSeparate, 
                       _glad_glBlendFuncSeparatei, _glad_glBlendFunci, _glad_glBlitFramebuffer, 
                       _glad_glBlitNamedFramebuffer, _glad_glBufferData, _glad_glBufferStorage, 
                       _glad_glBufferSubData, _glad_glCheckFramebufferStatus, _glad_glCheckNamedFramebufferStatus, 
                       _glad_glClampColor, _glad_glClear, _glad_glClearBufferData, 
                       _glad_glClearBufferSubData, _glad_glClearBufferfi, _glad_glClearBufferfv, 
                       _glad_glClearBufferiv, _glad_glClearBufferuiv, _glad_glClearColor, 
                       _glad_glClearDepth, _glad_glClearDepthf, _glad_glClearNamedBufferData, 
                       _glad_glClearNamedBufferSubData, _glad_glClearNamedFramebufferfi, 
                       _glad_glClearNamedFramebufferfv, _glad_glClearNamedFramebufferiv, 
                       _glad_glClearNamedFramebufferuiv, _glad_glClearStencil, _glad_glClearTexImage, 
                       _glad_glClearTexSubImage, _glad_glClientWaitSync, _glad_glClipControl, 
                       _glad_glColorMask, _glad_glColorMaski, _glad_glColorP3ui, 
                       _glad_glColorP3uiv, _glad_glColorP4ui, _glad_glColorP4uiv, 
                       _glad_glCompileShader, _glad_glCompressedTexImage1D, _glad_glCompressedTexImage2D, 
                       _glad_glCompressedTexImage3D, _glad_glCompressedTexSubImage1D, 
                       _glad_glCompressedTexSubImage2D, _glad_glCompressedTexSubImage3D, 
                       _glad_glCompressedTextureSubImage1D, _glad_glCompressedTextureSubImage2D, 
                       _glad_glCompressedTextureSubImage3D, _glad_glCopyBufferSubData, 
                       _glad_glCopyImageSubData, _glad_glCopyNamedBufferSubData, 
                       _glad_glCopyTexImage1D, _glad_glCopyTexImage2D, _glad_glCopyTexSubImage1D, 
                       _glad_glCopyTexSubImage2D, _glad_glCopyTexSubImage3D, _glad_glCopyTextureSubImage1D, 
                       _glad_glCopyTextureSubImage2D, _glad_glCopyTextureSubImage3D, 
                       _glad_glCreateBuffers, _glad_glCreateFramebuffers, _glad_glCreateProgram, 
                       _glad_glCreateProgramPipelines, _glad_glCreateQueries, _glad_glCreateRenderbuffers, 
                       _glad_glCreateSamplers, _glad_glCreateShader, _glad_glCreateShaderProgramv, 
                       _glad_glCreateTextures, _glad_glCreateTransformFeedbacks, 
                       _glad_glCreateVertexArrays, _glad_glCullFace, _glad_glDebugMessageCallback, 
                       _glad_glDebugMessageControl, _glad_glDebugMessageInsert, _glad_glDeleteBuffers, 
                       _glad_glDeleteFramebuffers, _glad_glDeleteProgram, _glad_glDeleteProgramPipelines, 
                       _glad_glDeleteQueries, _glad_glDeleteRenderbuffers, _glad_glDeleteSamplers, 
                       _glad_glDeleteShader, _glad_glDeleteSync, _glad_glDeleteTextures, 
                       _glad_glDeleteTransformFeedbacks, _glad_glDeleteVertexArrays, 
                       _glad_glDepthFunc, _glad_glDepthMask, _glad_glDepthRange, 
                       _glad_glDepthRangeArrayv, _glad_glDepthRangeIndexed, _glad_glDepthRangef, 
                       _glad_glDetachShader, _glad_glDisable, _glad_glDisableVertexArrayAttrib, 
                       _glad_glDisableVertexAttribArray, _glad_glDisablei, _glad_glDispatchCompute, 
                       _glad_glDispatchComputeIndirect, _glad_glDrawArrays, _glad_glDrawArraysIndirect, 
                       _glad_glDrawArraysInstanced, _glad_glDrawArraysInstancedBaseInstance, 
                       _glad_glDrawBuffer, _glad_glDrawBuffers, _glad_glDrawElements, 
                       _glad_glDrawElementsBaseVertex, _glad_glDrawElementsIndirect, 
                       _glad_glDrawElementsInstanced, _glad_glDrawElementsInstancedBaseInstance, 
                       _glad_glDrawElementsInstancedBaseVertex, _glad_glDrawElementsInstancedBaseVertexBaseInstance, 
                       _glad_glDrawRangeElements, _glad_glDrawRangeElementsBaseVertex, 
                       _glad_glDrawTransformFeedback, _glad_glDrawTransformFeedbackInstanced, 
                       _glad_glDrawTransformFeedbackStream, _glad_glDrawTransformFeedbackStreamInstanced, 
                       _glad_glEnable, _glad_glEnableVertexArrayAttrib, _glad_glEnableVertexAttribArray, 
                       _glad_glEnablei, _glad_glEndConditionalRender, _glad_glEndQuery, 
                       _glad_glEndQueryIndexed, _glad_glEndTransformFeedback, _glad_glFenceSync, 
                       _glad_glFinish, _glad_glFlush, _glad_glFlushMappedBufferRange, 
                       _glad_glFlushMappedNamedBufferRange, _glad_glFramebufferParameteri, 
                       _glad_glFramebufferRenderbuffer, _glad_glFramebufferTexture, 
                       _glad_glFramebufferTexture1D, _glad_glFramebufferTexture2D, 
                       _glad_glFramebufferTexture3D, _glad_glFramebufferTextureLayer, 
                       _glad_glFrontFace, _glad_glGenBuffers, _glad_glGenFramebuffers, 
                       _glad_glGenProgramPipelines, _glad_glGenQueries, _glad_glGenRenderbuffers, 
                       _glad_glGenSamplers, _glad_glGenTextures, _glad_glGenTransformFeedbacks, 
                       _glad_glGenVertexArrays, _glad_glGenerateMipmap, _glad_glGenerateTextureMipmap, 
                       _glad_glGetActiveAtomicCounterBufferiv, _glad_glGetActiveAttrib, 
                       _glad_glGetActiveSubroutineName, _glad_glGetActiveSubroutineUniformName, 
                       _glad_glGetActiveSubroutineUniformiv, _glad_glGetActiveUniform, 
                       _glad_glGetActiveUniformBlockName, _glad_glGetActiveUniformBlockiv, 
                       _glad_glGetActiveUniformName, _glad_glGetActiveUniformsiv, 
                       _glad_glGetAttachedShaders, _glad_glGetAttribLocation, _glad_glGetBooleani_v, 
                       _glad_glGetBooleanv, _glad_glGetBufferParameteri64v, _glad_glGetBufferParameteriv, 
                       _glad_glGetBufferPointerv, _glad_glGetBufferSubData, _glad_glGetCompressedTexImage, 
                       _glad_glGetCompressedTextureImage, _glad_glGetCompressedTextureSubImage, 
                       _glad_glGetDebugMessageLog, _glad_glGetDoublei_v, _glad_glGetDoublev, 
                       _glad_glGetError, _glad_glGetFloati_v, _glad_glGetFloatv, 
                       _glad_glGetFragDataIndex, _glad_glGetFragDataLocation, _glad_glGetFramebufferAttachmentParameteriv, 
                       _glad_glGetFramebufferParameteriv, _glad_glGetGraphicsResetStatus, 
                       _glad_glGetInteger64i_v, _glad_glGetInteger64v, _glad_glGetIntegeri_v, 
                       _glad_glGetIntegerv, _glad_glGetInternalformati64v, _glad_glGetInternalformativ, 
                       _glad_glGetMultisamplefv, _glad_glGetNamedBufferParameteri64v, 
                       _glad_glGetNamedBufferParameteriv, _glad_glGetNamedBufferPointerv, 
                       _glad_glGetNamedBufferSubData, _glad_glGetNamedFramebufferAttachmentParameteriv, 
                       _glad_glGetNamedFramebufferParameteriv, _glad_glGetNamedRenderbufferParameteriv, 
                       _glad_glGetObjectLabel, _glad_glGetObjectPtrLabel, _glad_glGetPointerv, 
                       _glad_glGetProgramBinary, _glad_glGetProgramInfoLog, _glad_glGetProgramInterfaceiv, 
                       _glad_glGetProgramPipelineInfoLog, _glad_glGetProgramPipelineiv, 
                       _glad_glGetProgramResourceIndex, _glad_glGetProgramResourceLocation, 
                       _glad_glGetProgramResourceLocationIndex, _glad_glGetProgramResourceName, 
                       _glad_glGetProgramResourceiv, _glad_glGetProgramStageiv, _glad_glGetProgramiv, 
                       _glad_glGetQueryBufferObjecti64v, _glad_glGetQueryBufferObjectiv, 
                       _glad_glGetQueryBufferObjectui64v, _glad_glGetQueryBufferObjectuiv, 
                       _glad_glGetQueryIndexediv, _glad_glGetQueryObjecti64v, _glad_glGetQueryObjectiv, 
                       _glad_glGetQueryObjectui64v, _glad_glGetQueryObjectuiv, _glad_glGetQueryiv, 
                       _glad_glGetRenderbufferParameteriv, _glad_glGetSamplerParameterIiv, 
                       _glad_glGetSamplerParameterIuiv, _glad_glGetSamplerParameterfv, 
                       _glad_glGetSamplerParameteriv, _glad_glGetShaderInfoLog, _glad_glGetShaderPrecisionFormat, 
                       _glad_glGetShaderSource, _glad_glGetShaderiv, _glad_glGetString, 
                       _glad_glGetStringi, _glad_glGetSubroutineIndex, _glad_glGetSubroutineUniformLocation, 
                       _glad_glGetSynciv, _glad_glGetTexImage, _glad_glGetTexLevelParameterfv, 
                       _glad_glGetTexLevelParameteriv, _glad_glGetTexParameterIiv, 
                       _glad_glGetTexParameterIuiv, _glad_glGetTexParameterfv, _glad_glGetTexParameteriv, 
                       _glad_glGetTextureImage, _glad_glGetTextureLevelParameterfv, 
                       _glad_glGetTextureLevelParameteriv, _glad_glGetTextureParameterIiv, 
                       _glad_glGetTextureParameterIuiv, _glad_glGetTextureParameterfv, 
                       _glad_glGetTextureParameteriv, _glad_glGetTextureSubImage, 
                       _glad_glGetTransformFeedbackVarying, _glad_glGetTransformFeedbacki64_v, 
                       _glad_glGetTransformFeedbacki_v, _glad_glGetTransformFeedbackiv, 
                       _glad_glGetUniformBlockIndex, _glad_glGetUniformIndices, _glad_glGetUniformLocation, 
                       _glad_glGetUniformSubroutineuiv, _glad_glGetUniformdv, _glad_glGetUniformfv, 
                       _glad_glGetUniformiv, _glad_glGetUniformuiv, _glad_glGetVertexArrayIndexed64iv, 
                       _glad_glGetVertexArrayIndexediv, _glad_glGetVertexArrayiv, 
                       _glad_glGetVertexAttribIiv, _glad_glGetVertexAttribIuiv, _glad_glGetVertexAttribLdv, 
                       _glad_glGetVertexAttribPointerv, _glad_glGetVertexAttribdv, 
                       _glad_glGetVertexAttribfv, _glad_glGetVertexAttribiv, _glad_glGetnColorTable, 
                       _glad_glGetnCompressedTexImage, _glad_glGetnConvolutionFilter, 
                       _glad_glGetnHistogram, _glad_glGetnMapdv, _glad_glGetnMapfv, 
                       _glad_glGetnMapiv, _glad_glGetnMinmax, _glad_glGetnPixelMapfv, 
                       _glad_glGetnPixelMapuiv, _glad_glGetnPixelMapusv, _glad_glGetnPolygonStipple, 
                       _glad_glGetnSeparableFilter, _glad_glGetnTexImage, _glad_glGetnUniformdv, 
                       _glad_glGetnUniformfv, _glad_glGetnUniformiv, _glad_glGetnUniformuiv, 
                       _glad_glHint, _glad_glInvalidateBufferData, _glad_glInvalidateBufferSubData, 
                       _glad_glInvalidateFramebuffer, _glad_glInvalidateNamedFramebufferData, 
                       _glad_glInvalidateNamedFramebufferSubData, _glad_glInvalidateSubFramebuffer, 
                       _glad_glInvalidateTexImage, _glad_glInvalidateTexSubImage, 
                       _glad_glIsBuffer, _glad_glIsEnabled, _glad_glIsEnabledi, _glad_glIsFramebuffer, 
                       _glad_glIsProgram, _glad_glIsProgramPipeline, _glad_glIsQuery, 
                       _glad_glIsRenderbuffer, _glad_glIsSampler, _glad_glIsShader, 
                       _glad_glIsSync, _glad_glIsTexture, _glad_glIsTransformFeedback, 
                       _glad_glIsVertexArray, _glad_glLineWidth, _glad_glLinkProgram, 
                       _glad_glLogicOp, _glad_glMapBuffer, _glad_glMapBufferRange, 
                       _glad_glMapNamedBuffer, _glad_glMapNamedBufferRange, _glad_glMemoryBarrier, 
                       _glad_glMemoryBarrierByRegion, _glad_glMinSampleShading, _glad_glMultiDrawArrays, 
                       _glad_glMultiDrawArraysIndirect, _glad_glMultiDrawArraysIndirectCount, 
                       _glad_glMultiDrawElements, _glad_glMultiDrawElementsBaseVertex, 
                       _glad_glMultiDrawElementsIndirect, _glad_glMultiDrawElementsIndirectCount, 
                       _glad_glMultiTexCoordP1ui, _glad_glMultiTexCoordP1uiv, _glad_glMultiTexCoordP2ui, 
                       _glad_glMultiTexCoordP2uiv, _glad_glMultiTexCoordP3ui, _glad_glMultiTexCoordP3uiv, 
                       _glad_glMultiTexCoordP4ui, _glad_glMultiTexCoordP4uiv, _glad_glNamedBufferData, 
                       _glad_glNamedBufferStorage, _glad_glNamedBufferSubData, _glad_glNamedFramebufferDrawBuffer, 
                       _glad_glNamedFramebufferDrawBuffers, _glad_glNamedFramebufferParameteri, 
                       _glad_glNamedFramebufferReadBuffer, _glad_glNamedFramebufferRenderbuffer, 
                       _glad_glNamedFramebufferTexture, _glad_glNamedFramebufferTextureLayer, 
                       _glad_glNamedRenderbufferStorage, _glad_glNamedRenderbufferStorageMultisample, 
                       _glad_glNormalP3ui, _glad_glNormalP3uiv, _glad_glObjectLabel, 
                       _glad_glObjectPtrLabel, _glad_glPatchParameterfv, _glad_glPatchParameteri, 
                       _glad_glPauseTransformFeedback, _glad_glPixelStoref, _glad_glPixelStorei, 
                       _glad_glPointParameterf, _glad_glPointParameterfv, _glad_glPointParameteri, 
                       _glad_glPointParameteriv, _glad_glPointSize, _glad_glPolygonMode, 
                       _glad_glPolygonOffset, _glad_glPolygonOffsetClamp, _glad_glPopDebugGroup, 
                       _glad_glPrimitiveRestartIndex, _glad_glProgramBinary, _glad_glProgramParameteri, 
                       _glad_glProgramUniform1d, _glad_glProgramUniform1dv, _glad_glProgramUniform1f, 
                       _glad_glProgramUniform1fv, _glad_glProgramUniform1i, _glad_glProgramUniform1iv, 
                       _glad_glProgramUniform1ui, _glad_glProgramUniform1uiv, _glad_glProgramUniform2d, 
                       _glad_glProgramUniform2dv, _glad_glProgramUniform2f, _glad_glProgramUniform2fv, 
                       _glad_glProgramUniform2i, _glad_glProgramUniform2iv, _glad_glProgramUniform2ui, 
                       _glad_glProgramUniform2uiv, _glad_glProgramUniform3d, _glad_glProgramUniform3dv, 
                       _glad_glProgramUniform3f, _glad_glProgramUniform3fv, _glad_glProgramUniform3i, 
                       _glad_glProgramUniform3iv, _glad_glProgramUniform3ui, _glad_glProgramUniform3uiv, 
                       _glad_glProgramUniform4d, _glad_glProgramUniform4dv, _glad_glProgramUniform4f, 
                       _glad_glProgramUniform4fv, _glad_glProgramUniform4i, _glad_glProgramUniform4iv, 
                       _glad_glProgramUniform4ui, _glad_glProgramUniform4uiv, _glad_glProgramUniformMatrix2dv, 
                       _glad_glProgramUniformMatrix2fv, _glad_glProgramUniformMatrix2x3dv, 
                       _glad_glProgramUniformMatrix2x3fv, _glad_glProgramUniformMatrix2x4dv, 
                       _glad_glProgramUniformMatrix2x4fv, _glad_glProgramUniformMatrix3dv, 
                       _glad_glProgramUniformMatrix3fv, _glad_glProgramUniformMatrix3x2dv, 
                       _glad_glProgramUniformMatrix3x2fv, _glad_glProgramUniformMatrix3x4dv, 
                       _glad_glProgramUniformMatrix3x4fv, _glad_glProgramUniformMatrix4dv, 
                       _glad_glProgramUniformMatrix4fv, _glad_glProgramUniformMatrix4x2dv, 
                       _glad_glProgramUniformMatrix4x2fv, _glad_glProgramUniformMatrix4x3dv, 
                       _glad_glProgramUniformMatrix4x3fv, _glad_glProvokingVertex, 
                       _glad_glPushDebugGroup, _glad_glQueryCounter, _glad_glReadBuffer, 
                       _glad_glReadPixels, _glad_glReadnPixels, _glad_glReleaseShaderCompiler, 
                       _glad_glRenderbufferStorage, _glad_glRenderbufferStorageMultisample, 
                       _glad_glResumeTransformFeedback, _glad_glSampleCoverage, _glad_glSampleMaski, 
                       _glad_glSamplerParameterIiv, _glad_glSamplerParameterIuiv, 
                       _glad_glSamplerParameterf, _glad_glSamplerParameterfv, _glad_glSamplerParameteri, 
                       _glad_glSamplerParameteriv, _glad_glScissor, _glad_glScissorArrayv, 
                       _glad_glScissorIndexed, _glad_glScissorIndexedv, _glad_glSecondaryColorP3ui, 
                       _glad_glSecondaryColorP3uiv, _glad_glShaderBinary, _glad_glShaderSource, 
                       _glad_glShaderStorageBlockBinding, _glad_glSpecializeShader, 
                       _glad_glStencilFunc, _glad_glStencilFuncSeparate, _glad_glStencilMask, 
                       _glad_glStencilMaskSeparate, _glad_glStencilOp, _glad_glStencilOpSeparate, 
                       _glad_glTexBuffer, _glad_glTexBufferRange, _glad_glTexCoordP1ui, 
                       _glad_glTexCoordP1uiv, _glad_glTexCoordP2ui, _glad_glTexCoordP2uiv, 
                       _glad_glTexCoordP3ui, _glad_glTexCoordP3uiv, _glad_glTexCoordP4ui, 
                       _glad_glTexCoordP4uiv, _glad_glTexImage1D, _glad_glTexImage2D, 
                       _glad_glTexImage2DMultisample, _glad_glTexImage3D, _glad_glTexImage3DMultisample, 
                       _glad_glTexParameterIiv, _glad_glTexParameterIuiv, _glad_glTexParameterf, 
                       _glad_glTexParameterfv, _glad_glTexParameteri, _glad_glTexParameteriv, 
                       _glad_glTexStorage1D, _glad_glTexStorage2D, _glad_glTexStorage2DMultisample, 
                       _glad_glTexStorage3D, _glad_glTexStorage3DMultisample, _glad_glTexSubImage1D, 
                       _glad_glTexSubImage2D, _glad_glTexSubImage3D, _glad_glTextureBarrier, 
                       _glad_glTextureBuffer, _glad_glTextureBufferRange, _glad_glTextureParameterIiv, 
                       _glad_glTextureParameterIuiv, _glad_glTextureParameterf, _glad_glTextureParameterfv, 
                       _glad_glTextureParameteri, _glad_glTextureParameteriv, _glad_glTextureStorage1D, 
                       _glad_glTextureStorage2D, _glad_glTextureStorage2DMultisample, 
                       _glad_glTextureStorage3D, _glad_glTextureStorage3DMultisample, 
                       _glad_glTextureSubImage1D, _glad_glTextureSubImage2D, _glad_glTextureSubImage3D, 
                       _glad_glTextureView, _glad_glTransformFeedbackBufferBase, 
                       _glad_glTransformFeedbackBufferRange, _glad_glTransformFeedbackVaryings, 
                       _glad_glUniform1d, _glad_glUniform1dv, _glad_glUniform1f, 
                       _glad_glUniform1fv, _glad_glUniform1i, _glad_glUniform1iv, 
                       _glad_glUniform1ui, _glad_glUniform1uiv, _glad_glUniform2d, 
                       _glad_glUniform2dv, _glad_glUniform2f, _glad_glUniform2fv, 
                       _glad_glUniform2i, _glad_glUniform2iv, _glad_glUniform2ui, 
                       _glad_glUniform2uiv, _glad_glUniform3d, _glad_glUniform3dv, 
                       _glad_glUniform3f, _glad_glUniform3fv, _glad_glUniform3i, 
                       _glad_glUniform3iv, _glad_glUniform3ui, _glad_glUniform3uiv, 
                       _glad_glUniform4d, _glad_glUniform4dv, _glad_glUniform4f, 
                       _glad_glUniform4fv, _glad_glUniform4i, _glad_glUniform4iv, 
                       _glad_glUniform4ui, _glad_glUniform4uiv, _glad_glUniformBlockBinding, 
                       _glad_glUniformMatrix2dv, _glad_glUniformMatrix2fv, _glad_glUniformMatrix2x3dv, 
                       _glad_glUniformMatrix2x3fv, _glad_glUniformMatrix2x4dv, _glad_glUniformMatrix2x4fv, 
                       _glad_glUniformMatrix3dv, _glad_glUniformMatrix3fv, _glad_glUniformMatrix3x2dv, 
                       _glad_glUniformMatrix3x2fv, _glad_glUniformMatrix3x4dv, _glad_glUniformMatrix3x4fv, 
                       _glad_glUniformMatrix4dv, _glad_glUniformMatrix4fv, _glad_glUniformMatrix4x2dv, 
                       _glad_glUniformMatrix4x2fv, _glad_glUniformMatrix4x3dv, _glad_glUniformMatrix4x3fv, 
                       _glad_glUniformSubroutinesuiv, _glad_glUnmapBuffer, _glad_glUnmapNamedBuffer, 
                       _glad_glUseProgram, _glad_glUseProgramStages, _glad_glValidateProgram, 
                       _glad_glValidateProgramPipeline, _glad_glVertexArrayAttribBinding, 
                       _glad_glVertexArrayAttribFormat, _glad_glVertexArrayAttribIFormat, 
                       _glad_glVertexArrayAttribLFormat, _glad_glVertexArrayBindingDivisor, 
                       _glad_glVertexArrayElementBuffer, _glad_glVertexArrayVertexBuffer, 
                       _glad_glVertexArrayVertexBuffers, _glad_glVertexAttrib1d, 
                       _glad_glVertexAttrib1dv, _glad_glVertexAttrib1f, _glad_glVertexAttrib1fv, 
                       _glad_glVertexAttrib1s, _glad_glVertexAttrib1sv, _glad_glVertexAttrib2d, 
                       _glad_glVertexAttrib2dv, _glad_glVertexAttrib2f, _glad_glVertexAttrib2fv, 
                       _glad_glVertexAttrib2s, _glad_glVertexAttrib2sv, _glad_glVertexAttrib3d, 
                       _glad_glVertexAttrib3dv, _glad_glVertexAttrib3f, _glad_glVertexAttrib3fv, 
                       _glad_glVertexAttrib3s, _glad_glVertexAttrib3sv, _glad_glVertexAttrib4Nbv, 
                       _glad_glVertexAttrib4Niv, _glad_glVertexAttrib4Nsv, _glad_glVertexAttrib4Nub, 
                       _glad_glVertexAttrib4Nubv, _glad_glVertexAttrib4Nuiv, _glad_glVertexAttrib4Nusv, 
                       _glad_glVertexAttrib4bv, _glad_glVertexAttrib4d, _glad_glVertexAttrib4dv, 
                       _glad_glVertexAttrib4f, _glad_glVertexAttrib4fv, _glad_glVertexAttrib4iv, 
                       _glad_glVertexAttrib4s, _glad_glVertexAttrib4sv, _glad_glVertexAttrib4ubv, 
                       _glad_glVertexAttrib4uiv, _glad_glVertexAttrib4usv, _glad_glVertexAttribBinding, 
                       _glad_glVertexAttribDivisor, _glad_glVertexAttribFormat, _glad_glVertexAttribI1i, 
                       _glad_glVertexAttribI1iv, _glad_glVertexAttribI1ui, _glad_glVertexAttribI1uiv, 
                       _glad_glVertexAttribI2i, _glad_glVertexAttribI2iv, _glad_glVertexAttribI2ui, 
                       _glad_glVertexAttribI2uiv, _glad_glVertexAttribI3i, _glad_glVertexAttribI3iv, 
                       _glad_glVertexAttribI3ui, _glad_glVertexAttribI3uiv, _glad_glVertexAttribI4bv, 
                       _glad_glVertexAttribI4i, _glad_glVertexAttribI4iv, _glad_glVertexAttribI4sv, 
                       _glad_glVertexAttribI4ubv, _glad_glVertexAttribI4ui, _glad_glVertexAttribI4uiv, 
                       _glad_glVertexAttribI4usv, _glad_glVertexAttribIFormat, _glad_glVertexAttribIPointer, 
                       _glad_glVertexAttribL1d, _glad_glVertexAttribL1dv, _glad_glVertexAttribL2d, 
                       _glad_glVertexAttribL2dv, _glad_glVertexAttribL3d, _glad_glVertexAttribL3dv, 
                       _glad_glVertexAttribL4d, _glad_glVertexAttribL4dv, _glad_glVertexAttribLFormat, 
                       _glad_glVertexAttribLPointer, _glad_glVertexAttribP1ui, _glad_glVertexAttribP1uiv, 
                       _glad_glVertexAttribP2ui, _glad_glVertexAttribP2uiv, _glad_glVertexAttribP3ui, 
                       _glad_glVertexAttribP3uiv, _glad_glVertexAttribP4ui, _glad_glVertexAttribP4uiv, 
                       _glad_glVertexAttribPointer, _glad_glVertexBindingDivisor, 
                       _glad_glVertexP2ui, _glad_glVertexP2uiv, _glad_glVertexP3ui, 
                       _glad_glVertexP3uiv, _glad_glVertexP4ui, _glad_glVertexP4uiv, 
                       _glad_glViewport, _glad_glViewportArrayv, _glad_glViewportIndexedf, 
                       _glad_glViewportIndexedfv, _glad_glWaitSync, _glfwCreateCursor, 
                       _glfwCreateStandardCursor, _glfwCreateWindow, _glfwCreateWindowSurface, 
                       _glfwDefaultWindowHints, _glfwDestroyCursor, _glfwDestroyWindow, 
                       _glfwExtensionSupported, _glfwFocusWindow, _glfwGetClipboardString, 
                       _glfwGetCocoaMonitor, _glfwGetCocoaWindow, _glfwGetCurrentContext, 
                       _glfwGetCursorPos, _glfwGetFramebufferSize, _glfwGetGammaRamp, 
                       _glfwGetInputMode, _glfwGetInstanceProcAddress, _glfwGetJoystickAxes, 
                       _glfwGetJoystickButtons, _glfwGetJoystickName, _glfwGetKey, 
                       _glfwGetKeyName, _glfwGetMonitorName, _glfwGetMonitorPhysicalSize, 
                       _glfwGetMonitorPos, _glfwGetMonitors, _glfwGetMouseButton, 
                       _glfwGetNSGLContext, _glfwGetPhysicalDevicePresentationSupport, 
                       _glfwGetPrimaryMonitor, _glfwGetProcAddress, _glfwGetRequiredInstanceExtensions, 
                       _glfwGetTime, _glfwGetTimerFrequency, _glfwGetTimerValue, 
                       _glfwGetVersion, _glfwGetVersionString, _glfwGetVideoMode, 
                       _glfwGetVideoModes, _glfwGetWindowAttrib, _glfwGetWindowFrameSize, 
                       _glfwGetWindowMonitor, _glfwGetWindowPos, _glfwGetWindowSize, 
                       _glfwGetWindowUserPointer, _glfwHideWindow, _glfwIconifyWindow, 
                       _glfwInit, _glfwJoystickPresent, _glfwMakeContextCurrent, 
                       _glfwMaximizeWindow, _glfwPollEvents, _glfwPostEmptyEvent, 
                       _glfwRestoreWindow, _glfwSetCharCallback, _glfwSetCharModsCallback, 
                       _glfwSetClipboardString, _glfwSetCursor, _glfwSetCursorEnterCallback, 
                       _glfwSetCursorPos, _glfwSetCursorPosCallback, _glfwSetDropCallback, 
                       _glfwSetErrorCallback, _glfwSetFramebufferSizeCallback, _glfwSetGamma, 
                       _glfwSetGammaRamp, _glfwSetInputMode, _glfwSetJoystickCallback, 
                       _glfwSetKeyCallback, _glfwSetMonitorCallback, _glfwSetMouseButtonCallback, 
                       _glfwSetScrollCallback, _glfwSetTime, _glfwSetWindowAspectRatio, 
                       _glfwSetWindowCloseCallback, _glfwSetWindowFocusCallback, 
                       _glfwSetWindowIcon, _glfwSetWindowIconifyCallback, _glfwSetWindowMonitor, 
                       _glfwSetWindowPos, _glfwSetWindowPosCallback, _glfwSetWindowRefreshCallback, 
                       _glfwSetWindowShouldClose, _glfwSetWindowSize, _glfwSetWindowSizeCallback, 
                       _glfwSetWindowSizeLimits, _glfwSetWindowTitle, _glfwSetWindowUserPointer, 
                       _glfwShowWindow, _glfwSwapBuffers, _glfwSwapInterval, _glfwTerminate, 
                       _glfwVulkanSupported, _glfwWaitEvents, _glfwWaitEventsTimeout, 
                       _glfwWindowHint, _glfwWindowShouldClose, _nvgAddFallbackFont, 
                       _nvgAddFallbackFontId, _nvgArc, _nvgArcTo, _nvgBeginFrame, 
                       _nvgBeginPath, _nvgBezierTo, _nvgBoxGradient, _nvgCancelFrame, 
                       _nvgCircle, _nvgClosePath, _nvgCreateFont, _nvgCreateFontMem, 
                       _nvgCreateGL3, _nvgCreateImage, _nvgCreateImageMem, _nvgCreateImageRGBA, 
                       _nvgCreateInternal, _nvgCurrentTransform, _nvgDebugDumpPathCache, 
                       _nvgDegToRad, _nvgDeleteGL3, _nvgDeleteImage, _nvgDeleteInternal, 
                       _nvgEllipse, _nvgEndFrame, _nvgFill, _nvgFillColor, _nvgFillPaint, 
                       _nvgFindFont, _nvgFontBlur, _nvgFontFace, _nvgFontFaceId, 
                       _nvgFontSize, _nvgGlobalAlpha, _nvgGlobalCompositeBlendFunc, 
                       _nvgGlobalCompositeBlendFuncSeparate, _nvgGlobalCompositeOperation, 
                       _nvgHSL, _nvgHSLA, _nvgImagePattern, _nvgImageSize, _nvgInternalParams, 
                       _nvgIntersectScissor, _nvgLerpRGBA, _nvgLineCap, _nvgLineJoin, 
                       _nvgLineTo, _nvgLinearGradient, _nvgMiterLimit, _nvgMoveTo, 
                       _nvgPathWinding, _nvgQuadTo, _nvgRGB, _nvgRGBA, _nvgRGBAf, 
                       _nvgRGBf, _nvgRadToDeg, _nvgRadialGradient, _nvgRect, _nvgReset, 
                       _nvgResetScissor, _nvgResetTransform, _nvgRestore, _nvgRotate, 
                       _nvgRoundedRect, _nvgRoundedRectVarying, _nvgSave, _nvgScale, 
                       _nvgScissor, _nvgShapeAntiAlias, _nvgSkewX, _nvgSkewY, _nvgStroke, 
                       _nvgStrokeColor, _nvgStrokePaint, _nvgStrokeWidth, _nvgText, 
                       _nvgTextAlign, _nvgTextBounds, _nvgTextBox, _nvgTextBoxBounds, 
                       _nvgTextBreakLines, _nvgTextGlyphPositions, _nvgTextLetterSpacing, 
                       _nvgTextLineHeight, _nvgTextMetrics, _nvgTransRGBA, _nvgTransRGBAf, 
                       _nvgTransform, _nvgTransformIdentity, _nvgTransformInverse, 
                       _nvgTransformMultiply, _nvgTransformPoint, _nvgTransformPremultiply, 
                       _nvgTransformRotate, _nvgTransformScale, _nvgTransformSkewX, 
                       _nvgTransformSkewY, _nvgTransformTranslate, _nvgTranslate, 
                       _nvgUpdateImage, _nvglCreateImageFromHandleGL3, _nvglImageHandleGL3, 
                       _roboto_bold_ttf, _roboto_bold_ttf_size, _roboto_regular_ttf, 
                       _roboto_regular_ttf_size, _stbi__tga_read_rgb16, _stbi_convert_iphone_png_to_rgb, 
                       _stbi_failure_reason, _stbi_hdr_to_ldr_gamma, _stbi_hdr_to_ldr_scale, 
                       _stbi_image_free, _stbi_info, _stbi_info_from_callbacks, _stbi_info_from_file, 
                       _stbi_info_from_memory, _stbi_is_hdr, _stbi_is_hdr_from_callbacks, 
                       _stbi_is_hdr_from_file, _stbi_is_hdr_from_memory, _stbi_ldr_to_hdr_gamma, 
                       _stbi_ldr_to_hdr_scale, _stbi_load, _stbi_load_from_callbacks, 
                       _stbi_load_from_file, _stbi_load_from_memory, _stbi_loadf, 
                       _stbi_loadf_from_callbacks, _stbi_loadf_from_file, _stbi_loadf_from_memory, 
                       _stbi_set_flip_vertically_on_load, _stbi_set_unpremultiply_on_load, 
                       _stbi_zlib_decode_buffer, _stbi_zlib_decode_malloc, _stbi_zlib_decode_malloc_guesssize, 
                       _stbi_zlib_decode_malloc_guesssize_headerflag, _stbi_zlib_decode_noheader_buffer, 
                       _stbi_zlib_decode_noheader_malloc, _stbtt_BakeFontBitmap, 
                       _stbtt_CompareUTF8toUTF16_bigendian, _stbtt_FindGlyphIndex, 
                       _stbtt_FindMatchingFont, _stbtt_FreeBitmap, _stbtt_FreeShape, 
                       _stbtt_GetBakedQuad, _stbtt_GetCodepointBitmap, _stbtt_GetCodepointBitmapBox, 
                       _stbtt_GetCodepointBitmapBoxSubpixel, _stbtt_GetCodepointBitmapSubpixel, 
                       _stbtt_GetCodepointBox, _stbtt_GetCodepointHMetrics, _stbtt_GetCodepointKernAdvance, 
                       _stbtt_GetCodepointShape, _stbtt_GetFontBoundingBox, _stbtt_GetFontNameString, 
                       _stbtt_GetFontOffsetForIndex, _stbtt_GetFontVMetrics, _stbtt_GetGlyphBitmap, 
                       _stbtt_GetGlyphBitmapBox, _stbtt_GetGlyphBitmapBoxSubpixel, 
                       _stbtt_GetGlyphBitmapSubpixel, _stbtt_GetGlyphBox, _stbtt_GetGlyphHMetrics, 
                       _stbtt_GetGlyphKernAdvance, _stbtt_GetGlyphShape, _stbtt_GetPackedQuad, 
                       _stbtt_InitFont, _stbtt_IsGlyphEmpty, _stbtt_MakeCodepointBitmap, 
                       _stbtt_MakeCodepointBitmapSubpixel, _stbtt_MakeGlyphBitmap, 
                       _stbtt_MakeGlyphBitmapSubpixel, _stbtt_PackBegin, _stbtt_PackEnd, 
                       _stbtt_PackFontRange, _stbtt_PackFontRanges, _stbtt_PackFontRangesGatherRects, 
                       _stbtt_PackFontRangesPackRects, _stbtt_PackFontRangesRenderIntoRects, 
                       _stbtt_PackSetOversampling, _stbtt_Rasterize, _stbtt_ScaleForMappingEmToPixels, 
                       _stbtt_ScaleForPixelHeight ]
    objc-classes:    [ GLFWApplication, GLFWApplicationDelegate, GLFWContentView, 
                       GLFWLayoutListener, GLFWWindow, GLFWWindowDelegate ]
    objc-ivars:      [ GLFWContentView.markedText, GLFWContentView.trackingArea, 
                       GLFWContentView.window, GLFWWindowDelegate.window ]
...
